; Function Attrs: null_pointer_is_valid sspstrong uwtable
define internal i32 @dissect_log_message_request(ptr noundef %0, i32 noundef %1, ptr readnone captures(none) %2, ptr noundef %3, i32 %4) #0 {
  %6 = load i32, ptr @hf_ndmp_log_type, align 4
  %7 = tail call ptr @proto_tree_add_item(ptr noundef %3, i32 noundef %6, ptr noundef %0, i32 noundef %1, i32 noundef 4, i32 noundef 0)
  %8 = add i32 %1, 4
  %9 = load i32, ptr @hf_ndmp_log_message_id, align 4
  %10 = tail call ptr @proto_tree_add_item(ptr noundef %3, i32 noundef %9, ptr noundef %0, i32 noundef %8, i32 noundef 4, i32 noundef 0)
  %11 = add i32 %1, 8
  %12 = load i32, ptr @hf_ndmp_log_message, align 4
  %13 = tail call i32 @dissect_rpc_string(ptr noundef %0, ptr noundef %3, i32 noundef %12, i32 noundef %11, ptr noundef null)
  ret i32 %13
}